(dp0
S'name'
p1
S''
p2
sS'value'
p3
F0.0
sS'child'
p4
(lp5
(dp6
g1
S'Bovine'
p7
sg3
F0.69395
sg4
Nsa(dp8
g1
g2
sg3
F0.54939
sg4
(lp9
(dp10
g1
S'Hylobates'
p11
sg3
F0.36079
sg4
Nsa(dp12
g1
g2
sg3
F0.15057
sg4
(lp13
(dp14
g1
S'Pongo'
p15
sg3
F0.33636
sg4
Nsa(dp16
g1
g2
sg3
F0.06124
sg4
(lp17
(dp18
g1
S'G._Gorilla'
p19
sg3
F0.17147
sg4
Nsa(dp20
g1
g2
sg3
F0.08386
sg4
(lp21
(dp22
g1
S'P._paniscus'
p23
sg3
F0.19268
sg4
Nsa(dp24
g1
S'H._sapiens'
p25
sg3
F0.11927
sg4
Nsasasasasa(dp26
g1
S'Rodent'
p27
sg3
F1.2146
sg4
Nsas.